target datalayout = "e-m:e-p270:32:32-p271:32:32-p272:64:64-i64:64-i128:128-f80:128-n8:16:32:64-S128"
target triple = "x86_64-pc-linux-gnu"

%struct.ExprContext = type { i32, ptr, ptr, ptr, ptr, ptr, ptr, ptr, ptr, ptr, i64, i8, i64, i8, ptr, ptr, ptr, ptr }
%struct.FunctionCallInfoBaseData = type { ptr, ptr, ptr, i32, i8, i16, [0 x %struct.NullableDatum] }
%struct.NullableDatum = type { i64, i8 }
%struct.FmgrInfo = type { ptr, i32, i16, i8, i8, i8, ptr, ptr, ptr }
%struct.AggState = type { %struct.ScanState, ptr, i32, i32, i32, i32, ptr, i32, i32, ptr, ptr, ptr, ptr, ptr, ptr, ptr, ptr, i8, i8, i32, i32, ptr, ptr, ptr, i32, i8, i32, ptr, ptr, ptr, ptr, ptr, ptr, i8, i32, ptr, ptr, ptr, ptr, ptr, ptr, i8, i8, i64, i64, i32, double, i64, i64, i64, i32, ptr, ptr, ptr, ptr }
%struct.ScanState = type { %struct.PlanState, ptr, ptr, ptr }
%struct.PlanState = type { i32, ptr, ptr, ptr, ptr, ptr, ptr, ptr, ptr, ptr, ptr, ptr, ptr, ptr, ptr, ptr, ptr, ptr, i8, ptr, ptr, ptr, ptr, ptr, i8, i8, i8, i8, i8, i8, i8, i8 }
%struct.AggStatePerTransData = type { ptr, i8, i8, i32, i32, i32, i32, i32, i32, %struct.FmgrInfo, %struct.FmgrInfo, %struct.FmgrInfo, i32, i32, i32, ptr, ptr, ptr, ptr, %struct.FmgrInfo, ptr, i64, i8, i16, i16, i8, i8, ptr, ptr, ptr, i64, i8, i8, ptr, ptr, ptr, ptr }

@CurrentMemoryContext = external global ptr, align 8

; Function Attrs: inlinehint nounwind uwtable
define internal ptr @MemoryContextSwitchTo(ptr noundef %0) #2 {
  %2 = alloca ptr, align 8
  %3 = alloca ptr, align 8
  store ptr %0, ptr %2, align 8
  call void @llvm.lifetime.start.p0(i64 8, ptr %3) #11
  %4 = load ptr, ptr @CurrentMemoryContext, align 8
  store ptr %4, ptr %3, align 8
  %5 = load ptr, ptr %2, align 8
  store ptr %5, ptr @CurrentMemoryContext, align 8
  %6 = load ptr, ptr %3, align 8
  call void @llvm.lifetime.end.p0(i64 8, ptr %3) #11
  ret ptr %6
}

; Function Attrs: inlinehint nounwind uwtable
define internal ptr @DatumGetPointer(i64 noundef %0) #2 {
  %2 = alloca i64, align 8
  store i64 %0, ptr %2, align 8
  %3 = load i64, ptr %2, align 8
  %4 = inttoptr i64 %3 to ptr
  ret ptr %4
}

; Function Attrs: inlinehint nounwind uwtable
define internal zeroext i1 @DatumGetBool(i64 noundef %0) #2 {
  %2 = alloca i64, align 8
  store i64 %0, ptr %2, align 8
  %3 = load i64, ptr %2, align 8
  %4 = icmp ne i64 %3, 0
  ret i1 %4
}

; Function Attrs: nounwind uwtable
define dso_local zeroext i1 @ExecEvalPreOrderedDistinctSingle(ptr noundef %0, ptr noundef %1) #0 {
  %3 = alloca i1, align 1
  %4 = alloca ptr, align 8
  %5 = alloca ptr, align 8
  %6 = alloca i64, align 8
  %7 = alloca i8, align 1
  %8 = alloca ptr, align 8
  %9 = alloca i32, align 4
  store ptr %0, ptr %4, align 8
  store ptr %1, ptr %5, align 8
  call void @llvm.lifetime.start.p0(i64 8, ptr %6) #11
  %10 = load ptr, ptr %5, align 8
  %11 = getelementptr inbounds nuw %struct.AggStatePerTransData, ptr %10, i32 0, i32 34
  %12 = load ptr, ptr %11, align 8
  %13 = getelementptr inbounds nuw %struct.FunctionCallInfoBaseData, ptr %12, i32 0, i32 6
  %14 = getelementptr inbounds [0 x %struct.NullableDatum], ptr %13, i64 0, i64 1
  %15 = getelementptr inbounds nuw %struct.NullableDatum, ptr %14, i32 0, i32 0
  %16 = load i64, ptr %15, align 8
  store i64 %16, ptr %6, align 8
  call void @llvm.lifetime.start.p0(i64 1, ptr %7) #11
  %17 = load ptr, ptr %5, align 8
  %18 = getelementptr inbounds nuw %struct.AggStatePerTransData, ptr %17, i32 0, i32 34
  %19 = load ptr, ptr %18, align 8
  %20 = getelementptr inbounds nuw %struct.FunctionCallInfoBaseData, ptr %19, i32 0, i32 6
  %21 = getelementptr inbounds [0 x %struct.NullableDatum], ptr %20, i64 0, i64 1
  %22 = getelementptr inbounds nuw %struct.NullableDatum, ptr %21, i32 0, i32 1
  %23 = load i8, ptr %22, align 8, !range !7, !noundef !8
  %24 = trunc i8 %23 to i1
  %25 = zext i1 %24 to i8
  store i8 %25, ptr %7, align 1
  %26 = load ptr, ptr %5, align 8
  %27 = getelementptr inbounds nuw %struct.AggStatePerTransData, ptr %26, i32 0, i32 32
  %28 = load i8, ptr %27, align 1, !range !7, !noundef !8
  %29 = trunc i8 %28 to i1
  br i1 %29, label %30, label %55

30:                                               ; preds = %2
  %31 = load ptr, ptr %5, align 8
  %32 = getelementptr inbounds nuw %struct.AggStatePerTransData, ptr %31, i32 0, i32 31
  %33 = load i8, ptr %32, align 8, !range !7, !noundef !8
  %34 = trunc i8 %33 to i1
  %35 = zext i1 %34 to i32
  %36 = load i8, ptr %7, align 1, !range !7, !noundef !8
  %37 = trunc i8 %36 to i1
  %38 = zext i1 %37 to i32
  %39 = icmp ne i32 %35, %38
  br i1 %39, label %55, label %40

40:                                               ; preds = %30
  %41 = load i8, ptr %7, align 1, !range !7, !noundef !8
  %42 = trunc i8 %41 to i1
  br i1 %42, label %110, label %43

43:                                               ; preds = %40
  %44 = load ptr, ptr %5, align 8
  %45 = getelementptr inbounds nuw %struct.AggStatePerTransData, ptr %44, i32 0, i32 19
  %46 = load ptr, ptr %5, align 8
  %47 = getelementptr inbounds nuw %struct.AggStatePerTransData, ptr %46, i32 0, i32 12
  %48 = load i32, ptr %47, align 8
  %49 = load ptr, ptr %5, align 8
  %50 = getelementptr inbounds nuw %struct.AggStatePerTransData, ptr %49, i32 0, i32 30
  %51 = load i64, ptr %50, align 8
  %52 = load i64, ptr %6, align 8
  %53 = call i64 @FunctionCall2Coll(ptr noundef %45, i32 noundef %48, i64 noundef %51, i64 noundef %52)
  %54 = call zeroext i1 @DatumGetBool(i64 noundef %53)
  br i1 %54, label %110, label %55

55:                                               ; preds = %43, %30, %2
  %56 = load ptr, ptr %5, align 8
  %57 = getelementptr inbounds nuw %struct.AggStatePerTransData, ptr %56, i32 0, i32 32
  %58 = load i8, ptr %57, align 1, !range !7, !noundef !8
  %59 = trunc i8 %58 to i1
  br i1 %59, label %60, label %75

60:                                               ; preds = %55
  %61 = load ptr, ptr %5, align 8
  %62 = getelementptr inbounds nuw %struct.AggStatePerTransData, ptr %61, i32 0, i32 25
  %63 = load i8, ptr %62, align 2, !range !7, !noundef !8
  %64 = trunc i8 %63 to i1
  br i1 %64, label %75, label %65

65:                                               ; preds = %60
  %66 = load ptr, ptr %5, align 8
  %67 = getelementptr inbounds nuw %struct.AggStatePerTransData, ptr %66, i32 0, i32 31
  %68 = load i8, ptr %67, align 8, !range !7, !noundef !8
  %69 = trunc i8 %68 to i1
  br i1 %69, label %75, label %70

70:                                               ; preds = %65
  %71 = load ptr, ptr %5, align 8
  %72 = getelementptr inbounds nuw %struct.AggStatePerTransData, ptr %71, i32 0, i32 30
  %73 = load i64, ptr %72, align 8
  %74 = call ptr @DatumGetPointer(i64 noundef %73)
  call void @pfree(ptr noundef %74)
  br label %75

75:                                               ; preds = %70, %65, %60, %55
  %76 = load ptr, ptr %5, align 8
  %77 = getelementptr inbounds nuw %struct.AggStatePerTransData, ptr %76, i32 0, i32 32
  store i8 1, ptr %77, align 1
  %78 = load i8, ptr %7, align 1, !range !7, !noundef !8
  %79 = trunc i8 %78 to i1
  br i1 %79, label %101, label %80

80:                                               ; preds = %75
  call void @llvm.lifetime.start.p0(i64 8, ptr %8) #11
  %81 = load ptr, ptr %4, align 8
  %82 = getelementptr inbounds nuw %struct.AggState, ptr %81, i32 0, i32 14
  %83 = load ptr, ptr %82, align 8
  %84 = getelementptr inbounds nuw %struct.ExprContext, ptr %83, i32 0, i32 5
  %85 = load ptr, ptr %84, align 8
  %86 = call ptr @MemoryContextSwitchTo(ptr noundef %85)
  store ptr %86, ptr %8, align 8
  %87 = load i64, ptr %6, align 8
  %88 = load ptr, ptr %5, align 8
  %89 = getelementptr inbounds nuw %struct.AggStatePerTransData, ptr %88, i32 0, i32 25
  %90 = load i8, ptr %89, align 2, !range !7, !noundef !8
  %91 = trunc i8 %90 to i1
  %92 = load ptr, ptr %5, align 8
  %93 = getelementptr inbounds nuw %struct.AggStatePerTransData, ptr %92, i32 0, i32 23
  %94 = load i16, ptr %93, align 2
  %95 = sext i16 %94 to i32
  %96 = call i64 @datumCopy(i64 noundef %87, i1 noundef zeroext %91, i32 noundef %95)
  %97 = load ptr, ptr %5, align 8
  %98 = getelementptr inbounds nuw %struct.AggStatePerTransData, ptr %97, i32 0, i32 30
  store i64 %96, ptr %98, align 8
  %99 = load ptr, ptr %8, align 8
  %100 = call ptr @MemoryContextSwitchTo(ptr noundef %99)
  call void @llvm.lifetime.end.p0(i64 8, ptr %8) #11
  br label %104

101:                                              ; preds = %75
  %102 = load ptr, ptr %5, align 8
  %103 = getelementptr inbounds nuw %struct.AggStatePerTransData, ptr %102, i32 0, i32 30
  store i64 0, ptr %103, align 8
  br label %104

104:                                              ; preds = %101, %80
  %105 = load i8, ptr %7, align 1, !range !7, !noundef !8
  %106 = trunc i8 %105 to i1
  %107 = load ptr, ptr %5, align 8
  %108 = getelementptr inbounds nuw %struct.AggStatePerTransData, ptr %107, i32 0, i32 31
  %109 = zext i1 %106 to i8
  store i8 %109, ptr %108, align 8
  store i1 true, ptr %3, align 1
  store i32 1, ptr %9, align 4
  br label %111

110:                                              ; preds = %43, %40
  store i1 false, ptr %3, align 1
  store i32 1, ptr %9, align 4
  br label %111

111:                                              ; preds = %110, %104
  call void @llvm.lifetime.end.p0(i64 1, ptr %7) #11
  call void @llvm.lifetime.end.p0(i64 8, ptr %6) #11
  %112 = load i1, ptr %3, align 1
  ret i1 %112
}