; Function Attrs: nounwind uwtable
define dso_local noundef zeroext i1 @ExecEvalPreOrderedDistinctSingle(ptr noundef readonly captures(none) %0, ptr noundef %1) local_unnamed_addr #0 {
  %3 = getelementptr inbounds nuw i8, ptr %1, i64 352
  %4 = load ptr, ptr %3, align 8
  %5 = getelementptr inbounds nuw i8, ptr %4, i64 48
  %6 = load i64, ptr %5, align 8
  %7 = getelementptr inbounds nuw i8, ptr %4, i64 56
  %8 = load i8, ptr %7, align 8, !range !8, !noundef !9
  %9 = trunc nuw i8 %8 to i1
  %10 = getelementptr inbounds nuw i8, ptr %1, i64 337
  %11 = load i8, ptr %10, align 1, !range !8, !noundef !9
  %12 = trunc nuw i8 %11 to i1
  br i1 %12, label %13, label %.thread26

13:                                               ; preds = %2
  %14 = getelementptr inbounds nuw i8, ptr %1, i64 336
  %15 = load i8, ptr %14, align 8, !range !8, !noundef !9
  %.not = icmp eq i8 %15, %8
  br i1 %.not, label %16, label %.thread

16:                                               ; preds = %13
  br i1 %9, label %53, label %17

17:                                               ; preds = %16
  %18 = getelementptr inbounds nuw i8, ptr %1, i64 232
  %19 = getelementptr inbounds nuw i8, ptr %1, i64 184
  %20 = load i32, ptr %19, align 8
  %21 = getelementptr inbounds nuw i8, ptr %1, i64 328
  %22 = load i64, ptr %21, align 8
  %23 = tail call i64 @FunctionCall2Coll(ptr noundef nonnull %18, i32 noundef %20, i64 noundef %22, i64 noundef %6) #18
  %.not25 = icmp eq i64 %23, 0
  br i1 %.not25, label %24, label %53

24:                                               ; preds = %17
  %.pre = load i8, ptr %10, align 1, !range !8
  %25 = trunc nuw i8 %.pre to i1
  br i1 %25, label %.thread, label %.thread27

.thread27:                                        ; preds = %24
  store i8 1, ptr %10, align 1
  br label %37

.thread:                                          ; preds = %13, %24
  %26 = getelementptr inbounds nuw i8, ptr %1, i64 302
  %27 = load i8, ptr %26, align 2, !range !8, !noundef !9
  %28 = trunc nuw i8 %27 to i1
  br i1 %28, label %.thread26, label %29

29:                                               ; preds = %.thread
  %30 = getelementptr inbounds nuw i8, ptr %1, i64 336
  %31 = load i8, ptr %30, align 8, !range !8, !noundef !9
  %32 = trunc nuw i8 %31 to i1
  br i1 %32, label %.thread26, label %33

33:                                               ; preds = %29
  %34 = getelementptr inbounds nuw i8, ptr %1, i64 328
  %35 = load i64, ptr %34, align 8
  %36 = inttoptr i64 %35 to ptr
  tail call void @pfree(ptr noundef %36) #18
  br label %.thread26

.thread26:                                        ; preds = %2, %33, %29, %.thread
  store i8 1, ptr %10, align 1
  br i1 %9, label %50, label %37

37:                                               ; preds = %.thread27, %.thread26
  %38 = getelementptr inbounds nuw i8, ptr %0, i64 304
  %39 = load ptr, ptr %38, align 8
  %40 = getelementptr inbounds nuw i8, ptr %39, i64 40
  %41 = load ptr, ptr %40, align 8
  %42 = load ptr, ptr @CurrentMemoryContext, align 8
  store ptr %41, ptr @CurrentMemoryContext, align 8
  %43 = getelementptr inbounds nuw i8, ptr %1, i64 302
  %44 = load i8, ptr %43, align 2, !range !8, !noundef !9
  %45 = trunc nuw i8 %44 to i1
  %46 = getelementptr inbounds nuw i8, ptr %1, i64 298
  %47 = load i16, ptr %46, align 2
  %48 = sext i16 %47 to i32
  %49 = tail call i64 @datumCopy(i64 noundef %6, i1 noundef zeroext %45, i32 noundef %48) #18
  store ptr %42, ptr @CurrentMemoryContext, align 8
  br label %50

50:                                               ; preds = %.thread26, %37
  %.sink = phi i64 [ %49, %37 ], [ 0, %.thread26 ]
  %51 = getelementptr inbounds nuw i8, ptr %1, i64 328
  store i64 %.sink, ptr %51, align 8
  %52 = getelementptr inbounds nuw i8, ptr %1, i64 336
  store i8 %8, ptr %52, align 8
  br label %53

53:                                               ; preds = %16, %17, %50
  %.0 = phi i1 [ true, %50 ], [ false, %17 ], [ false, %16 ]
  ret i1 %.0
}